target datalayout = "e-m:e-p270:32:32-p271:32:32-p272:64:64-i64:64-i128:128-f80:128-n8:16:32:64-S128"
target triple = "x86_64-pc-linux-gnu"

%struct.evthread_lock_callbacks = type { i32, i32, ptr, ptr, ptr, ptr }
%struct.evbuffer_file_segment = type { ptr, i32, i32, i8, i32, ptr, ptr, i64, i64, i64, ptr, ptr }

@evthread_lock_fns_ = external global %struct.evthread_lock_callbacks, align 8

; Function Attrs: nounwind uwtable
define ptr @evbuffer_file_segment_new(i32 noundef %0, i64 noundef %1, i64 noundef %2, i32 noundef %3) #0 {
  %5 = alloca ptr, align 8
  %6 = alloca i32, align 4
  %7 = alloca i64, align 8
  %8 = alloca i64, align 8
  %9 = alloca i32, align 4
  %10 = alloca ptr, align 8
  %11 = alloca i32, align 4
  store i32 %0, ptr %6, align 4
  store i64 %1, ptr %7, align 8
  store i64 %2, ptr %8, align 8
  store i32 %3, ptr %9, align 4
  call void @llvm.lifetime.start.p0(i64 8, ptr %10) #10
  %12 = call ptr @event_mm_calloc_(i64 noundef 1, i64 noundef 80)
  store ptr %12, ptr %10, align 8
  %13 = load ptr, ptr %10, align 8
  %14 = icmp ne ptr %13, null
  br i1 %14, label %16, label %15

15:                                               ; preds = %4
  store ptr null, ptr %5, align 8
  store i32 1, ptr %11, align 4
  br label %94

16:                                               ; preds = %4
  %17 = load ptr, ptr %10, align 8
  %18 = getelementptr inbounds nuw %struct.evbuffer_file_segment, ptr %17, i32 0, i32 1
  store i32 1, ptr %18, align 8
  %19 = load i32, ptr %6, align 4
  %20 = load ptr, ptr %10, align 8
  %21 = getelementptr inbounds nuw %struct.evbuffer_file_segment, ptr %20, i32 0, i32 4
  store i32 %19, ptr %21, align 4
  %22 = load i32, ptr %9, align 4
  %23 = load ptr, ptr %10, align 8
  %24 = getelementptr inbounds nuw %struct.evbuffer_file_segment, ptr %23, i32 0, i32 2
  store i32 %22, ptr %24, align 4
  %25 = load i64, ptr %7, align 8
  %26 = load ptr, ptr %10, align 8
  %27 = getelementptr inbounds nuw %struct.evbuffer_file_segment, ptr %26, i32 0, i32 7
  store i64 %25, ptr %27, align 8
  %28 = load ptr, ptr %10, align 8
  %29 = getelementptr inbounds nuw %struct.evbuffer_file_segment, ptr %28, i32 0, i32 10
  store ptr null, ptr %29, align 8
  %30 = load ptr, ptr %10, align 8
  %31 = getelementptr inbounds nuw %struct.evbuffer_file_segment, ptr %30, i32 0, i32 11
  store ptr null, ptr %31, align 8
  %32 = load i64, ptr %8, align 8
  %33 = icmp eq i64 %32, -1
  br i1 %33, label %34, label %41

34:                                               ; preds = %16
  %35 = load i32, ptr %6, align 4
  %36 = call i64 @evutil_fd_filesize(i32 noundef %35)
  store i64 %36, ptr %8, align 8
  %37 = load i64, ptr %8, align 8
  %38 = icmp eq i64 %37, -1
  br i1 %38, label %39, label %40

39:                                               ; preds = %34
  br label %92

40:                                               ; preds = %34
  br label %41

41:                                               ; preds = %40, %16
  %42 = load i64, ptr %8, align 8
  %43 = load ptr, ptr %10, align 8
  %44 = getelementptr inbounds nuw %struct.evbuffer_file_segment, ptr %43, i32 0, i32 9
  store i64 %42, ptr %44, align 8
  %45 = load i64, ptr %7, align 8
  %46 = icmp slt i64 %45, 0
  br i1 %46, label %58, label %47

47:                                               ; preds = %41
  %48 = load i64, ptr %8, align 8
  %49 = icmp slt i64 %48, 0
  br i1 %49, label %58, label %50

50:                                               ; preds = %47
  %51 = load i64, ptr %8, align 8
  %52 = icmp ugt i64 %51, 9223372036854775807
  br i1 %52, label %58, label %53

53:                                               ; preds = %50
  %54 = load i64, ptr %7, align 8
  %55 = load i64, ptr %8, align 8
  %56 = sub i64 9223372036854775807, %55
  %57 = icmp ugt i64 %54, %56
  br i1 %57, label %58, label %59

58:                                               ; preds = %53, %50, %47, %41
  br label %92

59:                                               ; preds = %53
  %60 = load i32, ptr %9, align 4
  %61 = and i32 %60, 4
  %62 = icmp ne i32 %61, 0
  br i1 %62, label %69, label %63

63:                                               ; preds = %59
  %64 = load ptr, ptr %10, align 8
  %65 = getelementptr inbounds nuw %struct.evbuffer_file_segment, ptr %64, i32 0, i32 3
  %66 = load i8, ptr %65, align 8
  %67 = and i8 %66, -2
  %68 = or i8 %67, 1
  store i8 %68, ptr %65, align 8
  br label %75

69:                                               ; preds = %59
  %70 = load ptr, ptr %10, align 8
  %71 = call i32 @evbuffer_file_segment_materialize(ptr noundef %70)
  %72 = icmp slt i32 %71, 0
  br i1 %72, label %73, label %74

73:                                               ; preds = %69
  br label %92

74:                                               ; preds = %69
  br label %75

75:                                               ; preds = %74, %63
  %76 = load i32, ptr %9, align 4
  %77 = and i32 %76, 8
  %78 = icmp ne i32 %77, 0
  br i1 %78, label %90, label %79

79:                                               ; preds = %75
  %80 = load ptr, ptr getelementptr inbounds nuw (%struct.evthread_lock_callbacks, ptr @evthread_lock_fns_, i32 0, i32 2), align 8
  %81 = icmp ne ptr %80, null
  br i1 %81, label %82, label %85

82:                                               ; preds = %79
  %83 = load ptr, ptr getelementptr inbounds nuw (%struct.evthread_lock_callbacks, ptr @evthread_lock_fns_, i32 0, i32 2), align 8
  %84 = call ptr %83(i32 noundef 0)
  br label %86

85:                                               ; preds = %79
  br label %86

86:                                               ; preds = %85, %82
  %87 = phi ptr [ %84, %82 ], [ null, %85 ]
  %88 = load ptr, ptr %10, align 8
  %89 = getelementptr inbounds nuw %struct.evbuffer_file_segment, ptr %88, i32 0, i32 0
  store ptr %87, ptr %89, align 8
  br label %90

90:                                               ; preds = %86, %75
  %91 = load ptr, ptr %10, align 8
  store ptr %91, ptr %5, align 8
  store i32 1, ptr %11, align 4
  br label %94

92:                                               ; preds = %73, %58, %39
  %93 = load ptr, ptr %10, align 8
  call void @event_mm_free_(ptr noundef %93)
  store ptr null, ptr %5, align 8
  store i32 1, ptr %11, align 4
  br label %94

94:                                               ; preds = %92, %90, %15
  call void @llvm.lifetime.end.p0(i64 8, ptr %10) #10
  %95 = load ptr, ptr %5, align 8
  ret ptr %95
}