; Function Attrs: nounwind uwtable
define ptr @evbuffer_file_segment_new(i32 noundef %0, i64 noundef %1, i64 noundef %2, i32 noundef %3) local_unnamed_addr #1 {
  %5 = tail call ptr @event_mm_calloc_(i64 noundef 1, i64 noundef 80) #16
  %.not = icmp eq ptr %5, null
  br i1 %.not, label %39, label %6

6:                                                ; preds = %4
  %7 = getelementptr inbounds nuw i8, ptr %5, i64 8
  store i32 1, ptr %7, align 8
  %8 = getelementptr inbounds nuw i8, ptr %5, i64 20
  store i32 %0, ptr %8, align 4
  %9 = getelementptr inbounds nuw i8, ptr %5, i64 12
  store i32 %3, ptr %9, align 4
  %10 = getelementptr inbounds nuw i8, ptr %5, i64 40
  store i64 %1, ptr %10, align 8
  %11 = getelementptr inbounds nuw i8, ptr %5, i64 64
  %12 = icmp eq i64 %2, -1
  tail call void @llvm.memset.p0.i64(ptr noundef nonnull align 8 dereferenceable(16) %11, i8 0, i64 16, i1 false)
  br i1 %12, label %13, label %16

13:                                               ; preds = %6
  %14 = tail call i64 @evutil_fd_filesize(i32 noundef %0) #16
  %15 = icmp eq i64 %14, -1
  br i1 %15, label %38, label %16

16:                                               ; preds = %13, %6
  %.030 = phi i64 [ %14, %13 ], [ %2, %6 ]
  %17 = getelementptr inbounds nuw i8, ptr %5, i64 56
  store i64 %.030, ptr %17, align 8
  %18 = or i64 %.030, %1
  %or.cond3.not = icmp slt i64 %18, 0
  %19 = sub nuw nsw i64 9223372036854775807, %.030
  %20 = icmp ugt i64 %1, %19
  %or.cond = select i1 %or.cond3.not, i1 true, i1 %20
  br i1 %or.cond, label %38, label %21

21:                                               ; preds = %16
  %22 = and i32 %3, 4
  %.not36 = icmp eq i32 %22, 0
  br i1 %.not36, label %23, label %27

23:                                               ; preds = %21
  %24 = getelementptr inbounds nuw i8, ptr %5, i64 16
  %25 = load i8, ptr %24, align 8
  %26 = or i8 %25, 1
  store i8 %26, ptr %24, align 8
  br label %30

27:                                               ; preds = %21
  %28 = tail call fastcc i32 @evbuffer_file_segment_materialize(ptr noundef nonnull %5)
  %29 = icmp slt i32 %28, 0
  br i1 %29, label %38, label %30

30:                                               ; preds = %27, %23
  %31 = and i32 %3, 8
  %.not37 = icmp eq i32 %31, 0
  br i1 %.not37, label %32, label %39

32:                                               ; preds = %30
  %33 = load ptr, ptr getelementptr inbounds nuw (i8, ptr @evthread_lock_fns_, i64 8), align 8
  %.not38 = icmp eq ptr %33, null
  br i1 %.not38, label %36, label %34

34:                                               ; preds = %32
  %35 = tail call ptr %33(i32 noundef 0) #16
  br label %36

36:                                               ; preds = %32, %34
  %37 = phi ptr [ %35, %34 ], [ null, %32 ]
  store ptr %37, ptr %5, align 8
  br label %39

38:                                               ; preds = %27, %16, %13
  tail call void @event_mm_free_(ptr noundef nonnull %5) #16
  br label %39

39:                                               ; preds = %30, %36, %4, %38
  %.0 = phi ptr [ null, %38 ], [ null, %4 ], [ %5, %36 ], [ %5, %30 ]
  ret ptr %.0
}